; Function Attrs: null_pointer_is_valid sspstrong uwtable
define range(i32 0, 8) i32 @ws_log_set_fatal_level_str(ptr noundef %0) local_unnamed_addr #1 {
  %2 = tail call fastcc i32 @string_to_log_level(ptr noundef %0)
  %or.cond.i = icmp eq i32 %2, 0
  br i1 %or.cond.i, label %ws_log_set_fatal_level.exit, label %3

3:                                                ; preds = %1
  %spec.store.select.i = tail call i32 @llvm.umin.i32(i32 %2, i32 7)
  %spec.store.select2.i = tail call i32 @llvm.umax.i32(i32 %spec.store.select.i, i32 5)
  store i32 %spec.store.select2.i, ptr @fatal_log_level, align 4
  br label %ws_log_set_fatal_level.exit

ws_log_set_fatal_level.exit:                      ; preds = %1, %3
  %.0.i = phi i32 [ %spec.store.select2.i, %3 ], [ 0, %1 ]
  ret i32 %.0.i
}